; Function Attrs: mustprogress uwtable
define hidden noundef zeroext i1 @_ZN4cvc58internal6theory2uf18FunctionProperties13isWellFoundedENS0_8TypeNodeE(ptr noundef readonly captures(none) %0) local_unnamed_addr #3 align 2 personality ptr @__gxx_personality_v0 {
  %2 = alloca %"class.cvc5::internal::TypeNode", align 8
  %3 = load ptr, ptr %0, align 8, !tbaa !6
  %4 = getelementptr inbounds nuw i8, ptr %3, i64 8
  %5 = load i64, ptr %4, align 8
  %6 = trunc i64 %5 to i32
  %7 = and i32 %6, 1023
  %8 = icmp eq i32 %7, 1023
  %9 = select i1 %8, i32 -1, i32 %7
  %10 = tail call noundef i32 @_ZN4cvc58internal4kind10metaKindOfENS1_6Kind_tE(i32 noundef %9)
  %11 = icmp eq i32 %10, 2
  %spec.select.v.i.i = select i1 %11, i64 32, i64 24
  %spec.select.i.i = getelementptr inbounds nuw i8, ptr %3, i64 %spec.select.v.i.i
  %12 = load ptr, ptr %0, align 8, !tbaa !6
  %13 = getelementptr inbounds nuw i8, ptr %12, i64 24
  %14 = getelementptr inbounds nuw i8, ptr %12, i64 8
  %15 = load i64, ptr %14, align 8
  %16 = lshr i64 %15, 32
  %17 = and i64 %16, 67108863
  %18 = getelementptr inbounds nuw ptr, ptr %13, i64 %17
  %.not9 = icmp eq ptr %spec.select.i.i, %18
  br i1 %.not9, label %_ZN4cvc58internal8TypeNodeD2Ev.exit._crit_edge, label %.lr.ph

.lr.ph:                                           ; preds = %1, %_ZN4cvc58internal8TypeNodeD2Ev.exit
  %.sroa.04.010 = phi ptr [ %49, %_ZN4cvc58internal8TypeNodeD2Ev.exit ], [ %spec.select.i.i, %1 ]
  call void @llvm.lifetime.start.p0(i64 8, ptr nonnull %2) #18
  call void @llvm.experimental.noalias.scope.decl(metadata !164)
  %19 = load ptr, ptr %.sroa.04.010, align 8, !tbaa !28, !noalias !164
  store ptr %19, ptr %2, align 8, !tbaa !6, !alias.scope !164
  %20 = load i64, ptr %19, align 8, !noalias !164
  %21 = lshr i64 %20, 40
  %22 = trunc nuw nsw i64 %21 to i32
  %23 = and i32 %22, 1048575
  %24 = icmp samesign ult i32 %23, 1048574
  br i1 %24, label %25, label %30, !prof !12

25:                                               ; preds = %.lr.ph
  %26 = add i64 %20, 1099511627776
  %27 = and i64 %26, 1152920405095219200
  %28 = and i64 %20, -1152920405095219201
  %29 = or disjoint i64 %27, %28
  store i64 %29, ptr %19, align 8, !noalias !164
  br label %_ZNK4cvc58internal4expr9NodeValue8iteratorINS0_8TypeNodeEEdeEv.exit

30:                                               ; preds = %.lr.ph
  %31 = icmp eq i32 %23, 1048574
  br i1 %31, label %32, label %_ZNK4cvc58internal4expr9NodeValue8iteratorINS0_8TypeNodeEEdeEv.exit, !prof !13

32:                                               ; preds = %30
  %33 = or i64 %20, 1152920405095219200
  store i64 %33, ptr %19, align 8, !noalias !164
  call void @_ZN4cvc58internal4expr9NodeValue20markRefCountMaxedOutEv(ptr noundef nonnull align 8 dereferenceable(24) %19), !noalias !164
  br label %_ZNK4cvc58internal4expr9NodeValue8iteratorINS0_8TypeNodeEEdeEv.exit

_ZNK4cvc58internal4expr9NodeValue8iteratorINS0_8TypeNodeEEdeEv.exit: ; preds = %25, %30, %32
  %34 = invoke noundef zeroext i1 @_ZNK4cvc58internal8TypeNode13isWellFoundedEv(ptr noundef nonnull align 8 dereferenceable(8) %2)
          to label %35 unwind label %50

35:                                               ; preds = %_ZNK4cvc58internal4expr9NodeValue8iteratorINS0_8TypeNodeEEdeEv.exit
  %36 = load ptr, ptr %2, align 8, !tbaa !6
  %37 = load i64, ptr %36, align 8
  %38 = and i64 %37, 1152920405095219200
  %.not.i.i = icmp eq i64 %38, 1152920405095219200
  br i1 %.not.i.i, label %_ZN4cvc58internal8TypeNodeD2Ev.exit, label %39, !prof !13

39:                                               ; preds = %35
  %40 = add i64 %37, 1152920405095219200
  %41 = and i64 %40, 1152920405095219200
  %42 = and i64 %37, -1152920405095219201
  %43 = or disjoint i64 %41, %42
  store i64 %43, ptr %36, align 8
  %44 = icmp eq i64 %41, 0
  br i1 %44, label %45, label %_ZN4cvc58internal8TypeNodeD2Ev.exit, !prof !13

45:                                               ; preds = %39
  invoke void @_ZN4cvc58internal4expr9NodeValue15markForDeletionEv(ptr noundef nonnull align 8 dereferenceable(24) %36)
          to label %_ZN4cvc58internal8TypeNodeD2Ev.exit unwind label %46

46:                                               ; preds = %45
  %47 = landingpad { ptr, i32 }
          catch ptr null
  %48 = extractvalue { ptr, i32 } %47, 0
  call void @__clang_call_terminate(ptr %48) #19
  unreachable

_ZN4cvc58internal8TypeNodeD2Ev.exit:              ; preds = %35, %39, %45
  call void @llvm.lifetime.end.p0(i64 8, ptr nonnull %2) #18
  %49 = getelementptr inbounds nuw i8, ptr %.sroa.04.010, i64 8
  %.not = icmp ne ptr %49, %18
  %or.cond.not = select i1 %34, i1 %.not, i1 false
  br i1 %or.cond.not, label %.lr.ph, label %_ZN4cvc58internal8TypeNodeD2Ev.exit._crit_edge, !llvm.loop !167

50:                                               ; preds = %_ZNK4cvc58internal4expr9NodeValue8iteratorINS0_8TypeNodeEEdeEv.exit
  %51 = landingpad { ptr, i32 }
          cleanup
  call void @_ZN4cvc58internal8TypeNodeD2Ev(ptr noundef nonnull align 8 dereferenceable(8) %2) #18
  call void @llvm.lifetime.end.p0(i64 8, ptr nonnull %2) #18
  resume { ptr, i32 } %51

_ZN4cvc58internal8TypeNodeD2Ev.exit._crit_edge:   ; preds = %_ZN4cvc58internal8TypeNodeD2Ev.exit, %1
  %.not.lcssa = phi i1 [ true, %1 ], [ %34, %_ZN4cvc58internal8TypeNodeD2Ev.exit ]
  ret i1 %.not.lcssa
}